target datalayout = "e-m:e-p270:32:32-p271:32:32-p272:64:64-i64:64-i128:128-f80:128-n8:16:32:64-S128"
target triple = "x86_64-pc-linux-gnu"

%struct.Aig_Man_t_ = type { ptr, ptr, ptr, ptr, ptr, ptr, ptr, %struct.Aig_Obj_t_, i32, i32, i32, i32, i32, i32, [7 x i32], i32, ptr, i32, ptr, i32, ptr, i32, i32, i32, ptr, i32, i32, i32, i32, i32, ptr, ptr, i32, ptr, ptr, i32, ptr, ptr, i32, i32, i32, ptr, ptr, ptr, ptr, ptr, ptr, ptr, ptr, ptr, ptr, ptr, ptr, ptr, ptr, i32, ptr, ptr, ptr, ptr, i32, i64, i64, i64, ptr, ptr }
%struct.Aig_Obj_t_ = type { %union.anon, ptr, ptr, i64, i32, i32, %union.anon.0 }
%union.anon = type { ptr }
%union.anon.0 = type { ptr }
%struct.Vec_Ptr_t_ = type { i32, i32, ptr }
%struct.Fra_Man_t_ = type { ptr, ptr, ptr, i32, ptr, i32, ptr, ptr, ptr, i32, ptr, ptr, ptr, ptr, i32, ptr, i64, i64, ptr, ptr, i32, ptr, i32, i32, i32, i32, i32, i32, i32, i32, i32, i32, i32, i32, i32, i32, i32, i32, i32, i32, i32, i64, i64, i64, i64, i64, i64, i64, i64, i64, i64, i64 }
%struct.Fra_Par_t_ = type { i32, double, i32, i32, double, double, i32, i32, i32, i32, i32, i32, i32, i32, i32, i32, i32, i32, i32, i32, i32, i32, i32, i32, i32 }
%struct.timespec = type { i64, i64 }

; Function Attrs: inlinehint nounwind uwtable
define internal i32 @Vec_PtrSize(ptr noundef %0) #2 {
  %2 = alloca ptr, align 8
  store ptr %0, ptr %2, align 8, !tbaa !29
  %3 = load ptr, ptr %2, align 8, !tbaa !29
  %4 = getelementptr inbounds nuw %struct.Vec_Ptr_t_, ptr %3, i32 0, i32 1
  %5 = load i32, ptr %4, align 4, !tbaa !64
  ret i32 %5
}

; Function Attrs: inlinehint nounwind uwtable
define internal i32 @Aig_ManObjNumMax(ptr noundef %0) #2 {
  %2 = alloca ptr, align 8
  store ptr %0, ptr %2, align 8, !tbaa !3
  %3 = load ptr, ptr %2, align 8, !tbaa !3
  %4 = getelementptr inbounds nuw %struct.Aig_Man_t_, ptr %3, i32 0, i32 4
  %5 = load ptr, ptr %4, align 8, !tbaa !48
  %6 = call i32 @Vec_PtrSize(ptr noundef %5)
  ret i32 %6
}

; Function Attrs: inlinehint nounwind uwtable
define internal i32 @Aig_ManRegNum(ptr noundef %0) #2 {
  %2 = alloca ptr, align 8
  store ptr %0, ptr %2, align 8, !tbaa !3
  %3 = load ptr, ptr %2, align 8, !tbaa !3
  %4 = getelementptr inbounds nuw %struct.Aig_Man_t_, ptr %3, i32 0, i32 8
  %5 = load i32, ptr %4, align 8, !tbaa !28
  ret i32 %5
}

; Function Attrs: inlinehint nounwind uwtable
define internal i64 @Abc_Clock() #2 {
  %1 = alloca i64, align 8
  %2 = alloca %struct.timespec, align 8
  %3 = alloca i32, align 4
  %4 = alloca i64, align 8
  call void @llvm.lifetime.start.p0(i64 16, ptr %2) #7
  %5 = call i32 @clock_gettime(i32 noundef 1, ptr noundef %2) #7
  %6 = icmp slt i32 %5, 0
  br i1 %6, label %7, label %8

7:                                                ; preds = %0
  store i64 -1, ptr %1, align 8
  store i32 1, ptr %3, align 4
  br label %19

8:                                                ; preds = %0
  call void @llvm.lifetime.start.p0(i64 8, ptr %4) #7
  %9 = getelementptr inbounds nuw %struct.timespec, ptr %2, i32 0, i32 0
  %10 = load i64, ptr %9, align 8, !tbaa !110
  %11 = mul nsw i64 %10, 1000000
  store i64 %11, ptr %4, align 8, !tbaa !90
  %12 = getelementptr inbounds nuw %struct.timespec, ptr %2, i32 0, i32 1
  %13 = load i64, ptr %12, align 8, !tbaa !112
  %14 = mul nsw i64 %13, 1000000
  %15 = sdiv i64 %14, 1000000000
  %16 = load i64, ptr %4, align 8, !tbaa !90
  %17 = add nsw i64 %16, %15
  store i64 %17, ptr %4, align 8, !tbaa !90
  %18 = load i64, ptr %4, align 8, !tbaa !90
  store i64 %18, ptr %1, align 8
  store i32 1, ptr %3, align 4
  call void @llvm.lifetime.end.p0(i64 8, ptr %4) #7
  br label %19

19:                                               ; preds = %8, %7
  call void @llvm.lifetime.end.p0(i64 16, ptr %2) #7
  %20 = load i64, ptr %1, align 8
  ret i64 %20
}

; Function Attrs: inlinehint nounwind uwtable
define internal i32 @Aig_ManNodeNum(ptr noundef %0) #2 {
  %2 = alloca ptr, align 8
  store ptr %0, ptr %2, align 8, !tbaa !3
  %3 = load ptr, ptr %2, align 8, !tbaa !3
  %4 = getelementptr inbounds nuw %struct.Aig_Man_t_, ptr %3, i32 0, i32 14
  %5 = getelementptr inbounds [7 x i32], ptr %4, i64 0, i64 5
  %6 = load i32, ptr %5, align 4, !tbaa !8
  %7 = load ptr, ptr %2, align 8, !tbaa !3
  %8 = getelementptr inbounds nuw %struct.Aig_Man_t_, ptr %7, i32 0, i32 14
  %9 = getelementptr inbounds [7 x i32], ptr %8, i64 0, i64 6
  %10 = load i32, ptr %9, align 8, !tbaa !8
  %11 = add nsw i32 %6, %10
  ret i32 %11
}

; Function Attrs: nounwind uwtable
define ptr @Fra_FraigPerform(ptr noundef %0, ptr noundef %1) #0 {
  %3 = alloca ptr, align 8
  %4 = alloca ptr, align 8
  %5 = alloca ptr, align 8
  %6 = alloca ptr, align 8
  %7 = alloca ptr, align 8
  %8 = alloca i64, align 8
  %9 = alloca i32, align 4
  %10 = alloca i64, align 8
  store ptr %0, ptr %4, align 8, !tbaa !3
  store ptr %1, ptr %5, align 8, !tbaa !89
  call void @llvm.lifetime.start.p0(i64 8, ptr %6) #7
  call void @llvm.lifetime.start.p0(i64 8, ptr %7) #7
  call void @llvm.lifetime.start.p0(i64 8, ptr %8) #7
  %11 = load ptr, ptr %4, align 8, !tbaa !3
  %12 = call i32 @Aig_ManNodeNum(ptr noundef %11)
  %13 = icmp eq i32 %12, 0
  br i1 %13, label %14, label %17

14:                                               ; preds = %2
  %15 = load ptr, ptr %4, align 8, !tbaa !3
  %16 = call ptr @Aig_ManDupOrdered(ptr noundef %15)
  store ptr %16, ptr %3, align 8
  store i32 1, ptr %9, align 4
  br label %150

17:                                               ; preds = %2
  %18 = call i64 @Abc_Clock()
  store i64 %18, ptr %8, align 8, !tbaa !90
  %19 = load ptr, ptr %4, align 8, !tbaa !3
  %20 = load ptr, ptr %5, align 8, !tbaa !89
  %21 = call ptr @Fra_ManStart(ptr noundef %19, ptr noundef %20)
  store ptr %21, ptr %6, align 8, !tbaa !37
  %22 = load ptr, ptr %6, align 8, !tbaa !37
  %23 = call ptr @Fra_ManPrepareComb(ptr noundef %22)
  %24 = load ptr, ptr %6, align 8, !tbaa !37
  %25 = getelementptr inbounds nuw %struct.Fra_Man_t_, ptr %24, i32 0, i32 2
  store ptr %23, ptr %25, align 8, !tbaa !76
  %26 = load ptr, ptr %4, align 8, !tbaa !3
  %27 = load ptr, ptr %5, align 8, !tbaa !89
  %28 = getelementptr inbounds nuw %struct.Fra_Par_t_, ptr %27, i32 0, i32 0
  %29 = load i32, ptr %28, align 8, !tbaa !91
  %30 = call ptr @Fra_SmlStart(ptr noundef %26, i32 noundef 0, i32 noundef 1, i32 noundef %29)
  %31 = load ptr, ptr %6, align 8, !tbaa !37
  %32 = getelementptr inbounds nuw %struct.Fra_Man_t_, ptr %31, i32 0, i32 7
  store ptr %30, ptr %32, align 8, !tbaa !92
  %33 = load ptr, ptr %6, align 8, !tbaa !37
  call void @Fra_SmlSimulate(ptr noundef %33, i32 noundef 0)
  %34 = load ptr, ptr %6, align 8, !tbaa !37
  %35 = getelementptr inbounds nuw %struct.Fra_Man_t_, ptr %34, i32 0, i32 6
  %36 = load ptr, ptr %35, align 8, !tbaa !54
  %37 = call i32 @Fra_ClassesCountLits(ptr noundef %36)
  %38 = load ptr, ptr %6, align 8, !tbaa !37
  %39 = getelementptr inbounds nuw %struct.Fra_Man_t_, ptr %38, i32 0, i32 24
  store i32 %37, ptr %39, align 8, !tbaa !93
  %40 = load ptr, ptr %4, align 8, !tbaa !3
  %41 = call i32 @Aig_ManNodeNum(ptr noundef %40)
  %42 = load ptr, ptr %6, align 8, !tbaa !37
  %43 = getelementptr inbounds nuw %struct.Fra_Man_t_, ptr %42, i32 0, i32 26
  store i32 %41, ptr %43, align 8, !tbaa !94
  %44 = load ptr, ptr %4, align 8, !tbaa !3
  %45 = call i32 @Aig_ManRegNum(ptr noundef %44)
  %46 = load ptr, ptr %6, align 8, !tbaa !37
  %47 = getelementptr inbounds nuw %struct.Fra_Man_t_, ptr %46, i32 0, i32 28
  store i32 %45, ptr %47, align 8, !tbaa !95
  %48 = load ptr, ptr %6, align 8, !tbaa !37
  %49 = getelementptr inbounds nuw %struct.Fra_Man_t_, ptr %48, i32 0, i32 0
  %50 = load ptr, ptr %49, align 8, !tbaa !68
  %51 = getelementptr inbounds nuw %struct.Fra_Par_t_, ptr %50, i32 0, i32 9
  %52 = load i32, ptr %51, align 4, !tbaa !96
  %53 = icmp ne i32 %52, 0
  br i1 %53, label %54, label %58

54:                                               ; preds = %17
  %55 = load ptr, ptr %6, align 8, !tbaa !37
  %56 = getelementptr inbounds nuw %struct.Fra_Man_t_, ptr %55, i32 0, i32 6
  %57 = load ptr, ptr %56, align 8, !tbaa !54
  call void @Fra_ClassesPrint(ptr noundef %57, i32 noundef 1)
  br label %58

58:                                               ; preds = %54, %17
  %59 = load ptr, ptr %6, align 8, !tbaa !37
  call void @Fra_FraigSweep(ptr noundef %59)
  %60 = load ptr, ptr %4, align 8, !tbaa !3
  %61 = getelementptr inbounds nuw %struct.Aig_Man_t_, ptr %60, i32 0, i32 42
  %62 = load ptr, ptr %61, align 8, !tbaa !97
  %63 = icmp ne ptr %62, null
  br i1 %63, label %64, label %72

64:                                               ; preds = %58
  %65 = load ptr, ptr %4, align 8, !tbaa !3
  %66 = getelementptr inbounds nuw %struct.Aig_Man_t_, ptr %65, i32 0, i32 42
  %67 = load ptr, ptr %66, align 8, !tbaa !97
  %68 = load ptr, ptr %6, align 8, !tbaa !37
  %69 = load ptr, ptr %4, align 8, !tbaa !3
  %70 = getelementptr inbounds nuw %struct.Aig_Man_t_, ptr %69, i32 0, i32 43
  %71 = load ptr, ptr %70, align 8, !tbaa !98
  call void %67(ptr noundef %68, ptr noundef %71)
  br label %72

72:                                               ; preds = %64, %58
  %73 = load ptr, ptr %6, align 8, !tbaa !37
  call void @Fra_ManFinalizeComb(ptr noundef %73)
  %74 = load ptr, ptr %6, align 8, !tbaa !37
  %75 = getelementptr inbounds nuw %struct.Fra_Man_t_, ptr %74, i32 0, i32 0
  %76 = load ptr, ptr %75, align 8, !tbaa !68
  %77 = getelementptr inbounds nuw %struct.Fra_Par_t_, ptr %76, i32 0, i32 6
  %78 = load i32, ptr %77, align 8, !tbaa !99
  %79 = icmp ne i32 %78, 0
  br i1 %79, label %80, label %112

80:                                               ; preds = %72
  call void @llvm.lifetime.start.p0(i64 8, ptr %10) #7
  %81 = call i64 @Abc_Clock()
  store i64 %81, ptr %10, align 8, !tbaa !90
  %82 = load ptr, ptr %6, align 8, !tbaa !37
  %83 = getelementptr inbounds nuw %struct.Fra_Man_t_, ptr %82, i32 0, i32 6
  %84 = load ptr, ptr %83, align 8, !tbaa !54
  %85 = load ptr, ptr %6, align 8, !tbaa !37
  %86 = getelementptr inbounds nuw %struct.Fra_Man_t_, ptr %85, i32 0, i32 21
  %87 = load ptr, ptr %86, align 8, !tbaa !83
  call void @Fra_ClassesCopyReprs(ptr noundef %84, ptr noundef %87)
  %88 = load ptr, ptr %6, align 8, !tbaa !37
  %89 = getelementptr inbounds nuw %struct.Fra_Man_t_, ptr %88, i32 0, i32 1
  %90 = load ptr, ptr %89, align 8, !tbaa !40
  %91 = call ptr @Aig_ManDupRepr(ptr noundef %90, i32 noundef 1)
  store ptr %91, ptr %7, align 8, !tbaa !3
  %92 = load ptr, ptr %7, align 8, !tbaa !3
  %93 = load ptr, ptr %7, align 8, !tbaa !3
  %94 = call i32 @Aig_ManObjNumMax(ptr noundef %93)
  call void @Aig_ManReprStart(ptr noundef %92, i32 noundef %94)
  %95 = load ptr, ptr %7, align 8, !tbaa !3
  %96 = load ptr, ptr %6, align 8, !tbaa !37
  %97 = getelementptr inbounds nuw %struct.Fra_Man_t_, ptr %96, i32 0, i32 1
  %98 = load ptr, ptr %97, align 8, !tbaa !40
  call void @Aig_ManTransferRepr(ptr noundef %95, ptr noundef %98)
  %99 = load ptr, ptr %7, align 8, !tbaa !3
  call void @Aig_ManMarkValidChoices(ptr noundef %99)
  %100 = load ptr, ptr %6, align 8, !tbaa !37
  %101 = getelementptr inbounds nuw %struct.Fra_Man_t_, ptr %100, i32 0, i32 2
  %102 = load ptr, ptr %101, align 8, !tbaa !76
  call void @Aig_ManStop(ptr noundef %102)
  %103 = load ptr, ptr %6, align 8, !tbaa !37
  %104 = getelementptr inbounds nuw %struct.Fra_Man_t_, ptr %103, i32 0, i32 2
  store ptr null, ptr %104, align 8, !tbaa !76
  %105 = call i64 @Abc_Clock()
  %106 = load i64, ptr %10, align 8, !tbaa !90
  %107 = sub nsw i64 %105, %106
  %108 = load ptr, ptr %6, align 8, !tbaa !37
  %109 = getelementptr inbounds nuw %struct.Fra_Man_t_, ptr %108, i32 0, i32 42
  %110 = load i64, ptr %109, align 8, !tbaa !100
  %111 = add nsw i64 %110, %107
  store i64 %111, ptr %109, align 8, !tbaa !100
  call void @llvm.lifetime.end.p0(i64 8, ptr %10) #7
  br label %128

112:                                              ; preds = %72
  %113 = load ptr, ptr %6, align 8, !tbaa !37
  %114 = getelementptr inbounds nuw %struct.Fra_Man_t_, ptr %113, i32 0, i32 6
  %115 = load ptr, ptr %114, align 8, !tbaa !54
  %116 = load ptr, ptr %6, align 8, !tbaa !37
  %117 = getelementptr inbounds nuw %struct.Fra_Man_t_, ptr %116, i32 0, i32 21
  %118 = load ptr, ptr %117, align 8, !tbaa !83
  call void @Fra_ClassesCopyReprs(ptr noundef %115, ptr noundef %118)
  %119 = load ptr, ptr %6, align 8, !tbaa !37
  %120 = getelementptr inbounds nuw %struct.Fra_Man_t_, ptr %119, i32 0, i32 2
  %121 = load ptr, ptr %120, align 8, !tbaa !76
  %122 = call i32 @Aig_ManCleanup(ptr noundef %121)
  %123 = load ptr, ptr %6, align 8, !tbaa !37
  %124 = getelementptr inbounds nuw %struct.Fra_Man_t_, ptr %123, i32 0, i32 2
  %125 = load ptr, ptr %124, align 8, !tbaa !76
  store ptr %125, ptr %7, align 8, !tbaa !3
  %126 = load ptr, ptr %6, align 8, !tbaa !37
  %127 = getelementptr inbounds nuw %struct.Fra_Man_t_, ptr %126, i32 0, i32 2
  store ptr null, ptr %127, align 8, !tbaa !76
  br label %128

128:                                              ; preds = %112, %80
  %129 = call i64 @Abc_Clock()
  %130 = load i64, ptr %8, align 8, !tbaa !90
  %131 = sub nsw i64 %129, %130
  %132 = load ptr, ptr %6, align 8, !tbaa !37
  %133 = getelementptr inbounds nuw %struct.Fra_Man_t_, ptr %132, i32 0, i32 49
  store i64 %131, ptr %133, align 8, !tbaa !101
  %134 = load ptr, ptr %6, align 8, !tbaa !37
  %135 = getelementptr inbounds nuw %struct.Fra_Man_t_, ptr %134, i32 0, i32 6
  %136 = load ptr, ptr %135, align 8, !tbaa !54
  %137 = call i32 @Fra_ClassesCountLits(ptr noundef %136)
  %138 = load ptr, ptr %6, align 8, !tbaa !37
  %139 = getelementptr inbounds nuw %struct.Fra_Man_t_, ptr %138, i32 0, i32 25
  store i32 %137, ptr %139, align 4, !tbaa !102
  %140 = load ptr, ptr %7, align 8, !tbaa !3
  %141 = call i32 @Aig_ManNodeNum(ptr noundef %140)
  %142 = load ptr, ptr %6, align 8, !tbaa !37
  %143 = getelementptr inbounds nuw %struct.Fra_Man_t_, ptr %142, i32 0, i32 27
  store i32 %141, ptr %143, align 4, !tbaa !103
  %144 = load ptr, ptr %7, align 8, !tbaa !3
  %145 = call i32 @Aig_ManRegNum(ptr noundef %144)
  %146 = load ptr, ptr %6, align 8, !tbaa !37
  %147 = getelementptr inbounds nuw %struct.Fra_Man_t_, ptr %146, i32 0, i32 29
  store i32 %145, ptr %147, align 4, !tbaa !104
  %148 = load ptr, ptr %6, align 8, !tbaa !37
  call void @Fra_ManStop(ptr noundef %148)
  %149 = load ptr, ptr %7, align 8, !tbaa !3
  store ptr %149, ptr %3, align 8
  store i32 1, ptr %9, align 4
  br label %150

150:                                              ; preds = %128, %14
  call void @llvm.lifetime.end.p0(i64 8, ptr %8) #7
  call void @llvm.lifetime.end.p0(i64 8, ptr %7) #7
  call void @llvm.lifetime.end.p0(i64 8, ptr %6) #7
  %151 = load ptr, ptr %3, align 8
  ret ptr %151
}