; Function Attrs: nounwind uwtable
define ptr @Fra_FraigPerform(ptr noundef %0, ptr noundef %1) local_unnamed_addr #4 {
  %3 = alloca %struct.timespec, align 8
  %4 = alloca %struct.timespec, align 8
  %5 = alloca %struct.timespec, align 8
  %6 = alloca %struct.timespec, align 8
  %7 = getelementptr i8, ptr %0, i64 148
  %.val60 = load i32, ptr %7, align 4, !tbaa !21
  %8 = getelementptr i8, ptr %0, i64 152
  %.val61 = load i32, ptr %8, align 8, !tbaa !21
  %9 = sub i32 0, %.val60
  %10 = icmp eq i32 %.val61, %9
  br i1 %10, label %11, label %13

11:                                               ; preds = %2
  %12 = tail call ptr @Aig_ManDupOrdered(ptr noundef nonnull %0) #11
  br label %107

13:                                               ; preds = %2
  call void @llvm.lifetime.start.p0(i64 16, ptr nonnull %6) #11
  %14 = call i32 @clock_gettime(i32 noundef 1, ptr noundef nonnull %6) #11
  %15 = icmp slt i32 %14, 0
  br i1 %15, label %Abc_Clock.exit, label %16

16:                                               ; preds = %13
  %17 = load i64, ptr %6, align 8, !tbaa !85
  %.neg72 = mul i64 %17, -1000000
  %18 = getelementptr inbounds nuw i8, ptr %6, i64 8
  %19 = load i64, ptr %18, align 8, !tbaa !87
  %.neg71 = sdiv i64 %19, -1000
  %.neg73 = add i64 %.neg71, %.neg72
  br label %Abc_Clock.exit

Abc_Clock.exit:                                   ; preds = %13, %16
  %.0.i.neg = phi i64 [ %.neg73, %16 ], [ 1, %13 ]
  call void @llvm.lifetime.end.p0(i64 16, ptr nonnull %6) #11
  %20 = call ptr @Fra_ManStart(ptr noundef nonnull %0, ptr noundef %1) #11
  %21 = call ptr @Fra_ManPrepareComb(ptr noundef %20) #11
  %22 = getelementptr inbounds nuw i8, ptr %20, i64 16
  store ptr %21, ptr %22, align 8, !tbaa !69
  %23 = load i32, ptr %1, align 8, !tbaa !88
  %24 = call ptr @Fra_SmlStart(ptr noundef nonnull %0, i32 noundef 0, i32 noundef 1, i32 noundef %23) #11
  %25 = getelementptr inbounds nuw i8, ptr %20, i64 56
  store ptr %24, ptr %25, align 8, !tbaa !89
  call void @Fra_SmlSimulate(ptr noundef %20, i32 noundef 0) #11
  %26 = getelementptr inbounds nuw i8, ptr %20, i64 48
  %27 = load ptr, ptr %26, align 8, !tbaa !50
  %28 = call i32 @Fra_ClassesCountLits(ptr noundef %27) #11
  %29 = getelementptr inbounds nuw i8, ptr %20, i64 184
  store i32 %28, ptr %29, align 8, !tbaa !90
  %.val58 = load i32, ptr %7, align 4, !tbaa !21
  %.val59 = load i32, ptr %8, align 8, !tbaa !21
  %30 = add nsw i32 %.val59, %.val58
  %31 = getelementptr inbounds nuw i8, ptr %20, i64 192
  store i32 %30, ptr %31, align 8, !tbaa !91
  %32 = getelementptr i8, ptr %0, i64 104
  %.val = load i32, ptr %32, align 8, !tbaa !22
  %33 = getelementptr inbounds nuw i8, ptr %20, i64 200
  store i32 %.val, ptr %33, align 8, !tbaa !92
  %34 = load ptr, ptr %20, align 8, !tbaa !61
  %35 = getelementptr inbounds nuw i8, ptr %34, i64 52
  %36 = load i32, ptr %35, align 4, !tbaa !93
  %.not = icmp eq i32 %36, 0
  br i1 %.not, label %39, label %37

37:                                               ; preds = %Abc_Clock.exit
  %38 = load ptr, ptr %26, align 8, !tbaa !50
  call void @Fra_ClassesPrint(ptr noundef %38, i32 noundef 1) #11
  br label %39

39:                                               ; preds = %37, %Abc_Clock.exit
  call void @Fra_FraigSweep(ptr noundef nonnull %20)
  %40 = getelementptr inbounds nuw i8, ptr %0, i64 336
  %41 = load ptr, ptr %40, align 8, !tbaa !94
  %.not54 = icmp eq ptr %41, null
  br i1 %.not54, label %45, label %42

42:                                               ; preds = %39
  %43 = getelementptr inbounds nuw i8, ptr %0, i64 344
  %44 = load ptr, ptr %43, align 8, !tbaa !95
  call void %41(ptr noundef nonnull %20, ptr noundef %44) #11
  br label %45

45:                                               ; preds = %42, %39
  call void @Fra_ManFinalizeComb(ptr noundef nonnull %20) #11
  %46 = load ptr, ptr %20, align 8, !tbaa !61
  %47 = getelementptr inbounds nuw i8, ptr %46, i64 40
  %48 = load i32, ptr %47, align 8, !tbaa !96
  %.not55 = icmp eq i32 %48, 0
  br i1 %.not55, label %79, label %49

49:                                               ; preds = %45
  call void @llvm.lifetime.start.p0(i64 16, ptr nonnull %5) #11
  %50 = call i32 @clock_gettime(i32 noundef 1, ptr noundef nonnull %5) #11
  %51 = icmp slt i32 %50, 0
  br i1 %51, label %Abc_Clock.exit64, label %52

52:                                               ; preds = %49
  %53 = load i64, ptr %5, align 8, !tbaa !85
  %.neg69 = mul i64 %53, -1000000
  %54 = getelementptr inbounds nuw i8, ptr %5, i64 8
  %55 = load i64, ptr %54, align 8, !tbaa !87
  %.neg = sdiv i64 %55, -1000
  %.neg70 = add i64 %.neg, %.neg69
  br label %Abc_Clock.exit64

Abc_Clock.exit64:                                 ; preds = %49, %52
  %.0.i63.neg = phi i64 [ %.neg70, %52 ], [ 1, %49 ]
  call void @llvm.lifetime.end.p0(i64 16, ptr nonnull %5) #11
  %56 = load ptr, ptr %26, align 8, !tbaa !50
  %57 = getelementptr inbounds nuw i8, ptr %20, i64 168
  %58 = load ptr, ptr %57, align 8, !tbaa !79
  call void @Fra_ClassesCopyReprs(ptr noundef %56, ptr noundef %58) #11
  %59 = getelementptr inbounds nuw i8, ptr %20, i64 8
  %60 = load ptr, ptr %59, align 8, !tbaa !34
  %61 = call ptr @Aig_ManDupRepr(ptr noundef %60, i32 noundef 1) #11
  %62 = getelementptr i8, ptr %61, i64 32
  %.val62 = load ptr, ptr %62, align 8, !tbaa !44
  %63 = getelementptr i8, ptr %.val62, i64 4
  %.val62.val = load i32, ptr %63, align 4, !tbaa !43
  call void @Aig_ManReprStart(ptr noundef %61, i32 noundef %.val62.val) #11
  %64 = load ptr, ptr %59, align 8, !tbaa !34
  call void @Aig_ManTransferRepr(ptr noundef %61, ptr noundef %64) #11
  call void @Aig_ManMarkValidChoices(ptr noundef %61) #11
  %65 = load ptr, ptr %22, align 8, !tbaa !69
  call void @Aig_ManStop(ptr noundef %65) #11
  store ptr null, ptr %22, align 8, !tbaa !69
  call void @llvm.lifetime.start.p0(i64 16, ptr nonnull %4) #11
  %66 = call i32 @clock_gettime(i32 noundef 1, ptr noundef nonnull %4) #11
  %67 = icmp slt i32 %66, 0
  br i1 %67, label %Abc_Clock.exit66, label %68

68:                                               ; preds = %Abc_Clock.exit64
  %69 = load i64, ptr %4, align 8, !tbaa !85
  %70 = mul nsw i64 %69, 1000000
  %71 = getelementptr inbounds nuw i8, ptr %4, i64 8
  %72 = load i64, ptr %71, align 8, !tbaa !87
  %73 = sdiv i64 %72, 1000
  %74 = add nsw i64 %73, %70
  br label %Abc_Clock.exit66

Abc_Clock.exit66:                                 ; preds = %Abc_Clock.exit64, %68
  %.0.i65 = phi i64 [ %74, %68 ], [ -1, %Abc_Clock.exit64 ]
  call void @llvm.lifetime.end.p0(i64 16, ptr nonnull %4) #11
  %75 = add i64 %.0.i65, %.0.i63.neg
  %76 = getelementptr inbounds nuw i8, ptr %20, i64 264
  %77 = load i64, ptr %76, align 8, !tbaa !97
  %78 = add nsw i64 %75, %77
  store i64 %78, ptr %76, align 8, !tbaa !97
  br label %86

79:                                               ; preds = %45
  %80 = load ptr, ptr %26, align 8, !tbaa !50
  %81 = getelementptr inbounds nuw i8, ptr %20, i64 168
  %82 = load ptr, ptr %81, align 8, !tbaa !79
  call void @Fra_ClassesCopyReprs(ptr noundef %80, ptr noundef %82) #11
  %83 = load ptr, ptr %22, align 8, !tbaa !69
  %84 = call i32 @Aig_ManCleanup(ptr noundef %83) #11
  %85 = load ptr, ptr %22, align 8, !tbaa !69
  store ptr null, ptr %22, align 8, !tbaa !69
  br label %86

86:                                               ; preds = %79, %Abc_Clock.exit66
  %.052 = phi ptr [ %61, %Abc_Clock.exit66 ], [ %85, %79 ]
  call void @llvm.lifetime.start.p0(i64 16, ptr nonnull %3) #11
  %87 = call i32 @clock_gettime(i32 noundef 1, ptr noundef nonnull %3) #11
  %88 = icmp slt i32 %87, 0
  br i1 %88, label %Abc_Clock.exit68, label %89

89:                                               ; preds = %86
  %90 = load i64, ptr %3, align 8, !tbaa !85
  %91 = mul nsw i64 %90, 1000000
  %92 = getelementptr inbounds nuw i8, ptr %3, i64 8
  %93 = load i64, ptr %92, align 8, !tbaa !87
  %94 = sdiv i64 %93, 1000
  %95 = add nsw i64 %94, %91
  br label %Abc_Clock.exit68

Abc_Clock.exit68:                                 ; preds = %86, %89
  %.0.i67 = phi i64 [ %95, %89 ], [ -1, %86 ]
  call void @llvm.lifetime.end.p0(i64 16, ptr nonnull %3) #11
  %96 = add i64 %.0.i67, %.0.i.neg
  %97 = getelementptr inbounds nuw i8, ptr %20, i64 320
  store i64 %96, ptr %97, align 8, !tbaa !98
  %98 = load ptr, ptr %26, align 8, !tbaa !50
  %99 = call i32 @Fra_ClassesCountLits(ptr noundef %98) #11
  %100 = getelementptr inbounds nuw i8, ptr %20, i64 188
  store i32 %99, ptr %100, align 4, !tbaa !99
  %101 = getelementptr i8, ptr %.052, i64 148
  %.052.val56 = load i32, ptr %101, align 4, !tbaa !21
  %102 = getelementptr i8, ptr %.052, i64 152
  %.052.val57 = load i32, ptr %102, align 8, !tbaa !21
  %103 = add nsw i32 %.052.val57, %.052.val56
  %104 = getelementptr inbounds nuw i8, ptr %20, i64 196
  store i32 %103, ptr %104, align 4, !tbaa !100
  %105 = getelementptr i8, ptr %.052, i64 104
  %.052.val = load i32, ptr %105, align 8, !tbaa !22
  %106 = getelementptr inbounds nuw i8, ptr %20, i64 204
  store i32 %.052.val, ptr %106, align 4, !tbaa !101
  call void @Fra_ManStop(ptr noundef nonnull %20) #11
  br label %107

107:                                              ; preds = %Abc_Clock.exit68, %11
  %.0 = phi ptr [ %12, %11 ], [ %.052, %Abc_Clock.exit68 ]
  ret ptr %.0
}